target datalayout = "e-m:e-p270:32:32-p271:32:32-p272:64:64-i64:64-i128:128-f80:128-n8:16:32:64-S128"
target triple = "x86_64-pc-linux-gnu"

@dry_run = external global i8, align 1
@datadir_target = external global ptr, align 8
@.str = private unnamed_addr constant [6 x i8] c"%s/%s\00", align 1
@pg_file_create_mode = external global i32, align 4
@.str.8 = private unnamed_addr constant [44 x i8] c"could not open file \22%s\22 for truncation: %m\00", align 1
@.str.9 = private unnamed_addr constant [39 x i8] c"could not truncate file \22%s\22 to %u: %m\00", align 1

; Function Attrs: nounwind uwtable
define dso_local void @truncate_target_file(ptr noundef %0, i64 noundef %1) #0 {
  %3 = alloca ptr, align 8
  %4 = alloca i64, align 8
  %5 = alloca [1024 x i8], align 16
  %6 = alloca i32, align 4
  %7 = alloca i32, align 4
  store ptr %0, ptr %3, align 8
  store i64 %1, ptr %4, align 8
  call void @llvm.lifetime.start.p0(i64 1024, ptr %5) #7
  call void @llvm.lifetime.start.p0(i64 4, ptr %6) #7
  %8 = load i8, ptr @dry_run, align 1, !range !4, !noundef !5
  %9 = trunc i8 %8 to i1
  br i1 %9, label %10, label %11

10:                                               ; preds = %2
  store i32 1, ptr %7, align 4
  br label %41

11:                                               ; preds = %2
  %12 = getelementptr inbounds [1024 x i8], ptr %5, i64 0, i64 0
  %13 = load ptr, ptr @datadir_target, align 8
  %14 = load ptr, ptr %3, align 8
  %15 = call i32 (ptr, i64, ptr, ...) @pg_snprintf(ptr noundef %12, i64 noundef 1024, ptr noundef @.str, ptr noundef %13, ptr noundef %14)
  %16 = getelementptr inbounds [1024 x i8], ptr %5, i64 0, i64 0
  %17 = load i32, ptr @pg_file_create_mode, align 4
  %18 = call i32 (ptr, i32, ...) @open(ptr noundef %16, i32 noundef 1, i32 noundef %17)
  store i32 %18, ptr %6, align 4
  %19 = load i32, ptr %6, align 4
  %20 = icmp slt i32 %19, 0
  br i1 %20, label %21, label %26

21:                                               ; preds = %11
  br label %22

22:                                               ; preds = %21
  %23 = getelementptr inbounds [1024 x i8], ptr %5, i64 0, i64 0
  call void (i32, i32, ptr, ...) @pg_log_generic(i32 noundef 4, i32 noundef 0, ptr noundef @.str.8, ptr noundef %23)
  call void @exit(i32 noundef 1) #9
  unreachable

24:                                               ; No predecessors!
  br label %25

25:                                               ; preds = %24
  br label %26

26:                                               ; preds = %25, %11
  %27 = load i32, ptr %6, align 4
  %28 = load i64, ptr %4, align 8
  %29 = call i32 @ftruncate(i32 noundef %27, i64 noundef %28) #7
  %30 = icmp ne i32 %29, 0
  br i1 %30, label %31, label %38

31:                                               ; preds = %26
  br label %32

32:                                               ; preds = %31
  %33 = getelementptr inbounds [1024 x i8], ptr %5, i64 0, i64 0
  %34 = load i64, ptr %4, align 8
  %35 = trunc i64 %34 to i32
  call void (i32, i32, ptr, ...) @pg_log_generic(i32 noundef 4, i32 noundef 0, ptr noundef @.str.9, ptr noundef %33, i32 noundef %35)
  call void @exit(i32 noundef 1) #9
  unreachable

36:                                               ; No predecessors!
  br label %37

37:                                               ; preds = %36
  br label %38

38:                                               ; preds = %37, %26
  %39 = load i32, ptr %6, align 4
  %40 = call i32 @close(i32 noundef %39)
  store i32 0, ptr %7, align 4
  br label %41

41:                                               ; preds = %38, %10
  call void @llvm.lifetime.end.p0(i64 4, ptr %6) #7
  call void @llvm.lifetime.end.p0(i64 1024, ptr %5) #7
  %42 = load i32, ptr %7, align 4
  switch i32 %42, label %44 [
    i32 0, label %43
    i32 1, label %43
  ]

43:                                               ; preds = %41, %41
  ret void

44:                                               ; preds = %41
  unreachable
}