; Function Attrs: nounwind uwtable
define dso_local void @truncate_target_file(ptr noundef %0, i64 noundef %1) local_unnamed_addr #0 {
  %3 = alloca [1024 x i8], align 16
  call void @llvm.lifetime.start.p0(i64 1024, ptr nonnull %3) #11
  %4 = load i8, ptr @dry_run, align 1, !range !4, !noundef !5
  %5 = trunc nuw i8 %4 to i1
  br i1 %5, label %19, label %6

6:                                                ; preds = %2
  %7 = load ptr, ptr @datadir_target, align 8
  %8 = call i32 (ptr, i64, ptr, ...) @pg_snprintf(ptr noundef nonnull %3, i64 noundef 1024, ptr noundef nonnull @.str, ptr noundef %7, ptr noundef %0) #11
  %9 = load i32, ptr @pg_file_create_mode, align 4
  %10 = call i32 (ptr, i32, ...) @open(ptr noundef nonnull %3, i32 noundef 1, i32 noundef %9) #11
  %11 = icmp slt i32 %10, 0
  br i1 %11, label %12, label %13

12:                                               ; preds = %6
  call void (i32, i32, ptr, ...) @pg_log_generic(i32 noundef 4, i32 noundef 0, ptr noundef nonnull @.str.8, ptr noundef nonnull %3) #11
  call void @exit(i32 noundef 1) #12
  unreachable

13:                                               ; preds = %6
  %14 = call i32 @ftruncate(i32 noundef %10, i64 noundef %1) #11
  %.not = icmp eq i32 %14, 0
  br i1 %.not, label %17, label %15

15:                                               ; preds = %13
  %16 = trunc i64 %1 to i32
  call void (i32, i32, ptr, ...) @pg_log_generic(i32 noundef 4, i32 noundef 0, ptr noundef nonnull @.str.9, ptr noundef nonnull %3, i32 noundef %16) #11
  call void @exit(i32 noundef 1) #12
  unreachable

17:                                               ; preds = %13
  %18 = call i32 @close(i32 noundef %10) #11
  br label %19

19:                                               ; preds = %2, %17
  call void @llvm.lifetime.end.p0(i64 1024, ptr nonnull %3) #11
  ret void
}